; Function Attrs: nounwind uwtable
define internal range(i32 0, 2) i32 @test_bio_nonclear_rst() #0 {
  %1 = alloca [16 x i8], align 16
  call void @llvm.lifetime.start.p0(i64 16, ptr nonnull %1) #4
  %2 = tail call ptr @BIO_s_mem() #4
  %3 = tail call ptr @BIO_new(ptr noundef %2) #4
  %4 = tail call i32 @test_ptr(ptr noundef nonnull @.str.7, i32 noundef 191, ptr noundef nonnull @.str.8, ptr noundef %3) #4
  %.not = icmp eq i32 %4, 0
  br i1 %.not, label %29, label %5

5:                                                ; preds = %0
  %6 = tail call i32 @BIO_puts(ptr noundef %3, ptr noundef nonnull @.str.15) #4
  %7 = tail call i32 @test_int_eq(ptr noundef nonnull @.str.7, i32 noundef 193, ptr noundef nonnull @.str.13, ptr noundef nonnull @.str.14, i32 noundef %6, i32 noundef 12) #4
  %.not10 = icmp eq i32 %7, 0
  br i1 %.not10, label %29, label %8

8:                                                ; preds = %5
  tail call void @BIO_set_flags(ptr noundef %3, i32 noundef 1024) #4
  %9 = call i32 @BIO_read(ptr noundef %3, ptr noundef nonnull %1, i32 noundef 16) #4
  %10 = call i32 @test_int_eq(ptr noundef nonnull @.str.7, i32 noundef 198, ptr noundef nonnull @.str.29, ptr noundef nonnull @.str.14, i32 noundef %9, i32 noundef 12) #4
  %.not11 = icmp eq i32 %10, 0
  br i1 %.not11, label %29, label %11

11:                                               ; preds = %8
  %12 = call i32 @test_mem_eq(ptr noundef nonnull @.str.7, i32 noundef 200, ptr noundef nonnull @.str.23, ptr noundef nonnull @.str.20, ptr noundef nonnull %1, i64 noundef 12, ptr noundef nonnull @.str.15, i64 noundef 12) #4
  %.not12 = icmp eq i32 %12, 0
  br i1 %.not12, label %29, label %13

13:                                               ; preds = %11
  %14 = call i64 @BIO_ctrl(ptr noundef %3, i32 noundef 1, i64 noundef 0, ptr noundef null) #4
  %15 = trunc i64 %14 to i32
  %16 = call i32 @test_int_gt(ptr noundef nonnull @.str.7, i32 noundef 202, ptr noundef nonnull @.str.33, ptr noundef nonnull @.str.18, i32 noundef %15, i32 noundef 0) #4
  %.not13 = icmp eq i32 %16, 0
  br i1 %.not13, label %29, label %17

17:                                               ; preds = %13
  %18 = call i32 @BIO_read(ptr noundef %3, ptr noundef nonnull %1, i32 noundef 16) #4
  %19 = call i32 @test_int_eq(ptr noundef nonnull @.str.7, i32 noundef 205, ptr noundef nonnull @.str.29, ptr noundef nonnull @.str.14, i32 noundef %18, i32 noundef 12) #4
  %.not14 = icmp eq i32 %19, 0
  br i1 %.not14, label %29, label %20

20:                                               ; preds = %17
  %21 = call i32 @test_mem_eq(ptr noundef nonnull @.str.7, i32 noundef 207, ptr noundef nonnull @.str.23, ptr noundef nonnull @.str.20, ptr noundef nonnull %1, i64 noundef 12, ptr noundef nonnull @.str.15, i64 noundef 12) #4
  %.not15 = icmp eq i32 %21, 0
  br i1 %.not15, label %29, label %22

22:                                               ; preds = %20
  call void @BIO_clear_flags(ptr noundef %3, i32 noundef 1024) #4
  %23 = call i64 @BIO_ctrl(ptr noundef %3, i32 noundef 1, i64 noundef 0, ptr noundef null) #4
  %24 = trunc i64 %23 to i32
  %25 = call i32 @test_int_gt(ptr noundef nonnull @.str.7, i32 noundef 211, ptr noundef nonnull @.str.33, ptr noundef nonnull @.str.18, i32 noundef %24, i32 noundef 0) #4
  %.not16 = icmp eq i32 %25, 0
  br i1 %.not16, label %29, label %26

26:                                               ; preds = %22
  %27 = call i32 @BIO_read(ptr noundef %3, ptr noundef nonnull %1, i32 noundef 16) #4
  %28 = call i32 @test_int_lt(ptr noundef nonnull @.str.7, i32 noundef 214, ptr noundef nonnull @.str.29, ptr noundef nonnull @.str.43, i32 noundef %27, i32 noundef 1) #4
  %.not17 = icmp ne i32 %28, 0
  %spec.select = zext i1 %.not17 to i32
  br label %29

29:                                               ; preds = %26, %22, %20, %17, %13, %11, %8, %5, %0
  %.0 = phi i32 [ 0, %22 ], [ 0, %20 ], [ 0, %17 ], [ 0, %13 ], [ 0, %11 ], [ 0, %8 ], [ 0, %5 ], [ 0, %0 ], [ %spec.select, %26 ]
  %30 = call i32 @BIO_free(ptr noundef %3) #4
  call void @llvm.lifetime.end.p0(i64 16, ptr nonnull %1) #4
  ret i32 %.0
}